Certificate:
    Data:
        Version: 3 (0x2)
        Serial Number: 2 (0x2)
        Signature Algorithm: sha1WithRSAEncryption
        Issuer: C=US, O=Google, OU=Enterprise, CN=Enterprise Subordinate CA
        Validity
            Not Before: Apr 18 15:34:30 2021 GMT
            Not After : Apr 18 15:34:30 2023 GMT
        Subject: C=US, ST=California, L=Mountain View, O=Google, OU=Enterprise, CN=pkcs.domain.com
        Subject Public Key Info:
            Public Key Algorithm: rsaEncryption
                RSA Public-Key: (2048 bit)
                Modulus:
                    00:b8:60:26:8b:0f:b6:be:47:be:f6:ec:bf:ce:cb:
                    72:2b:9e:96:70:04:93:c4:be:ac:c3:19:86:1b:59:
                    48:b3:64:f4:b6:ca:06:e3:f2:aa:c3:6e:77:84:74:
                    7c:eb:07:3c:4d:39:8b:ab:4d:89:31:2a:c2:61:bd:
                    8f:01:49:93:42:33:9c:e5:17:8b:d8:fe:0d:c3:14:
                    46:60:63:95:f4:d4:42:19:eb:f8:fa:8e:39:97:2e:
                    7f:6e:e8:62:7f:39:c5:96:3b:0e:6c:9b:e9:fd:b3:
                    d1:9c:a9:11:ac:23:38:61:eb:6d:18:ab:a7:25:62:
                    c7:83:a7:d5:48:5b:1c:3d:d5:6d:e9:25:4b:7e:1d:
                    27:89:3e:8a:3d:b6:21:61:e0:f2:9c:25:1b:b8:db:
                    42:21:e6:e7:5a:94:fa:51:c2:54:d3:50:5d:a7:ac:
                    90:e6:8d:78:a5:c1:e1:93:af:a0:02:af:da:df:f4:
                    df:a4:cb:0c:4a:37:be:89:a5:10:4d:fe:29:06:76:
                    16:56:10:28:3b:05:b1:a7:74:d9:db:6e:0d:e9:c9:
                    d3:09:d5:58:51:d7:ea:26:9b:36:71:44:98:3a:02:
                    7f:3a:ac:44:ed:d9:45:d2:9d:10:27:30:57:64:38:
                    38:0c:ee:25:c7:6b:d3:f3:a4:47:17:a9:4e:d4:c4:
                    a1:79
                Exponent: 65537 (0x10001)
        X509v3 extensions:
            X509v3 Key Usage: critical
                Digital Signature
            X509v3 Basic Constraints: 
                CA:FALSE
            X509v3 Extended Key Usage: 
                TLS Web Client Authentication
            X509v3 Subject Key Identifier: 
                17:12:C6:93:73:55:59:F6:5D:D2:59:3B:67:7F:20:60:BB:71:DE:57
            X509v3 Authority Key Identifier: 
                keyid:1E:71:2F:84:0F:FE:D5:B5:D3:08:9F:EB:29:7E:88:3E:52:B2:22:D2

            Authority Information Access: 
                CA Issuers - URI:http://pki.esodemoapp2.com/ca/tls-ca.cer

            X509v3 CRL Distribution Points: 

                Full Name:
                  URI:http://pki.esodemoapp2.com/ca/tls-ca.crl

            X509v3 Subject Alternative Name: 
                DNS:pkcs.domain.com
    Signature Algorithm: sha1WithRSAEncryption
         1e:75:1d:21:2a:8c:af:ae:06:88:23:c2:72:d2:02:4f:f7:fe:
         40:d6:b9:29:e9:0e:ed:68:2b:3b:f3:da:a5:73:63:9b:55:c8:
         b1:fd:7c:81:b2:24:af:e8:dc:4a:c2:0a:73:da:03:6a:1d:8d:
         7f:f9:27:d0:66:6e:5f:7a:00:cf:29:2a:4d:7a:d8:f8:78:c4:
         5d:86:4b:4b:4d:1a:44:c3:3b:b5:9b:a2:4e:fc:af:98:68:4a:
         7f:6a:62:97:d2:18:1e:80:07:1f:34:63:09:81:c5:0a:34:0b:
         ff:3f:89:2f:58:ec:ba:be:53:4d:48:be:92:c6:f2:06:ef:54:
         df:88:74:3d:6a:20:7a:da:ca:c2:dc:85:7d:c2:79:6d:93:10:
         81:22:32:b1:39:5f:33:60:7e:e0:12:0c:2e:18:2b:93:5e:3a:
         d0:21:b5:bd:db:8d:a4:03:4b:72:36:8a:ff:74:d1:41:ff:b6:
         ba:3a:10:03:0f:f9:f5:03:f1:a5:0f:26:75:79:ee:b3:61:f6:
         42:c1:b9:02:3c:ed:e3:2f:81:61:26:ff:03:1e:3c:d6:9c:6e:
         d7:f9:95:ad:87:96:6e:9c:9c:32:c7:29:8d:0c:99:9d:f4:c2:
         8b:9d:b0:a0:bf:2f:2f:d7:19:9f:3f:a3:cc:c9:c3:cc:0d:e5:
         c4:36:18:e1
-----BEGIN CERTIFICATE-----
MIIEXzCCA0egAwIBAgIBAjANBgkqhkiG9w0BAQUFADBXMQswCQYDVQQGEwJVUzEP
MA0GA1UECgwGR29vZ2xlMRMwEQYDVQQLDApFbnRlcnByaXNlMSIwIAYDVQQDDBlF
bnRlcnByaXNlIFN1Ym9yZGluYXRlIENBMB4XDTIxMDQxODE1MzQzMFoXDTIzMDQx
ODE1MzQzMFowejELMAkGA1UEBhMCVVMxEzARBgNVBAgTCkNhbGlmb3JuaWExFjAU
BgNVBAcTDU1vdW50YWluIFZpZXcxDzANBgNVBAoTBkdvb2dsZTETMBEGA1UECxMK
RW50ZXJwcmlzZTEYMBYGA1UEAxMPcGtjcy5kb21haW4uY29tMIIBIjANBgkqhkiG
9w0BAQEFAAOCAQ8AMIIBCgKCAQEAuGAmiw+2vke+9uy/zstyK56WcASTxL6swxmG
G1lIs2T0tsoG4/Kqw253hHR86wc8TTmLq02JMSrCYb2PAUmTQjOc5ReL2P4NwxRG
YGOV9NRCGev4+o45ly5/buhifznFljsObJvp/bPRnKkRrCM4YettGKunJWLHg6fV
SFscPdVt6SVLfh0niT6KPbYhYeDynCUbuNtCIebnWpT6UcJU01Bdp6yQ5o14pcHh
k6+gAq/a3/TfpMsMSje+iaUQTf4pBnYWVhAoOwWxp3TZ224N6cnTCdVYUdfqJps2
cUSYOgJ/OqxE7dlF0p0QJzBXZDg4DO4lx2vT86RHF6lO1MSheQIDAQABo4IBETCC
AQ0wDgYDVR0PAQH/BAQDAgeAMAkGA1UdEwQCMAAwEwYDVR0lBAwwCgYIKwYBBQUH
AwIwHQYDVR0OBBYEFBcSxpNzVVn2XdJZO2d/IGC7cd5XMB8GA1UdIwQYMBaAFB5x
L4QP/tW10wif6yl+iD5SsiLSMEQGCCsGAQUFBwEBBDgwNjA0BggrBgEFBQcwAoYo
aHR0cDovL3BraS5lc29kZW1vYXBwMi5jb20vY2EvdGxzLWNhLmNlcjA5BgNVHR8E
MjAwMC6gLKAqhihodHRwOi8vcGtpLmVzb2RlbW9hcHAyLmNvbS9jYS90bHMtY2Eu
Y3JsMBoGA1UdEQQTMBGCD3BrY3MuZG9tYWluLmNvbTANBgkqhkiG9w0BAQUFAAOC
AQEAHnUdISqMr64GiCPCctICT/f+QNa5KekO7WgrO/PapXNjm1XIsf18gbIkr+jc
SsIKc9oDah2Nf/kn0GZuX3oAzykqTXrY+HjEXYZLS00aRMM7tZuiTvyvmGhKf2pi
l9IYHoAHHzRjCYHFCjQL/z+JL1jsur5TTUi+ksbyBu9U34h0PWogetrKwtyFfcJ5
bZMQgSIysTlfM2B+4BIMLhgrk1460CG1vduNpANLcjaK/3TRQf+2ujoQAw/59QPx
pQ8mdXnus2H2QsG5Ajzt4y+BYSb/Ax481pxu1/mVrYeWbpycMscpjQyZnfTCi52w
oL8vL9cZnz+jzMnDzA3lxDYY4Q==
-----END CERTIFICATE-----
