Certificate:
    Data:
        Version: 3 (0x2)
        Serial Number: 2 (0x2)
        Signature Algorithm: sha1WithRSAEncryption
        Issuer: C=US, O=Google, OU=Enterprise, CN=Enterprise Root CA
        Validity
            Not Before: Apr 18 15:32:38 2021 GMT
            Not After : Apr 18 15:32:38 2031 GMT
        Subject: C=US, O=Google, OU=Enterprise, CN=Enterprise Subordinate CA
        Subject Public Key Info:
            Public Key Algorithm: rsaEncryption
                RSA Public-Key: (2048 bit)
                Modulus:
                    00:b0:7d:72:90:b1:1a:35:73:aa:74:84:fc:41:cf:
                    55:4a:a7:c2:9a:bc:56:23:2a:93:1c:ec:f9:a2:81:
                    99:7c:47:0d:a2:69:75:7b:d5:bd:fe:fd:82:56:2c:
                    c6:cd:b5:1f:17:0d:65:06:c9:6a:5a:13:91:fd:15:
                    bc:5a:29:30:69:e4:3c:66:00:0d:85:66:88:cc:17:
                    45:5c:71:a8:79:56:91:46:01:82:4a:b5:f8:5c:32:
                    53:c7:e3:03:8d:70:d1:ea:3d:58:28:18:13:fb:1c:
                    4a:45:77:3b:0d:e7:43:8c:e7:82:3d:3e:9c:6f:66:
                    0c:71:ae:46:46:89:b5:cc:12:12:35:e9:fa:24:1d:
                    89:d8:ab:fd:85:78:b0:73:10:52:4d:25:cb:ec:ec:
                    ec:2c:32:be:c6:34:01:e8:06:db:82:26:9a:b7:88:
                    10:72:ce:4c:3d:29:23:9b:f2:74:a2:48:30:d8:0f:
                    d9:56:34:d0:7e:86:44:18:e9:bc:ed:bc:a2:28:dc:
                    1e:4f:38:97:cf:e5:d0:72:0f:8d:63:2e:c8:f1:cb:
                    54:2b:8c:1c:99:5f:74:f8:d7:ab:af:cb:f4:a6:bd:
                    4f:9f:bd:e4:60:aa:4d:20:91:04:29:61:95:a4:33:
                    30:21:29:58:a6:cb:b7:68:0c:e7:43:09:e9:f6:e6:
                    f8:13
                Exponent: 65537 (0x10001)
        X509v3 extensions:
            X509v3 Key Usage: critical
                Certificate Sign, CRL Sign
            X509v3 Basic Constraints: critical
                CA:TRUE, pathlen:0
            X509v3 Subject Key Identifier: 
                1E:71:2F:84:0F:FE:D5:B5:D3:08:9F:EB:29:7E:88:3E:52:B2:22:D2
            X509v3 Authority Key Identifier: 
                keyid:AC:01:89:87:4C:DF:AB:00:3E:53:59:3B:36:5C:9E:F2:4D:25:AB:2C

            Authority Information Access: 
                CA Issuers - URI:http://pki.esodemoapp2.com/ca/root-ca.cer

            X509v3 CRL Distribution Points: 

                Full Name:
                  URI:http://pki.esodemoapp2.com/ca/root-ca.crl

    Signature Algorithm: sha1WithRSAEncryption
         80:38:24:6a:a7:0b:bc:3a:bc:16:b3:c7:9a:07:8a:1e:29:16:
         fa:5b:2e:80:94:84:7b:1a:60:dd:29:de:18:9c:ce:b0:21:88:
         ec:12:f0:63:58:15:d7:5c:61:af:d7:ef:f1:2c:f9:44:a4:f6:
         d0:73:6e:eb:fc:49:6d:88:f6:2e:59:36:ca:9c:ca:44:e2:26:
         72:da:e2:60:c5:c0:a9:6b:0f:fb:1a:22:64:70:9f:32:c9:03:
         de:1e:26:f4:5a:b4:81:0e:a0:d7:b6:35:d6:62:92:10:e0:02:
         3b:66:b0:b1:33:18:30:c8:9e:a2:1b:d8:3c:a2:aa:e2:14:b6:
         8a:5b:6e:d4:12:39:31:bc:77:69:a1:4d:1a:45:d1:83:45:00:
         f5:9e:91:aa:c6:46:87:43:60:85:f6:76:2e:f0:07:5c:55:fd:
         30:08:22:93:51:39:c6:cf:bf:0e:b9:fd:7d:d6:62:27:bd:4e:
         b4:53:34:18:10:56:21:2d:0e:5c:fd:0d:29:a0:b0:30:60:e9:
         6c:33:e1:d7:dc:9d:1d:bd:bc:14:1f:db:0d:14:38:56:26:59:
         42:92:13:9c:92:9c:2c:7d:6e:d8:76:c8:d0:a4:3d:83:03:27:
         a9:27:14:96:9c:6e:09:c9:19:ec:61:25:27:48:4a:c7:87:ba:
         69:15:35:f4
-----BEGIN CERTIFICATE-----
MIIEDTCCAvWgAwIBAgIBAjANBgkqhkiG9w0BAQUFADBQMQswCQYDVQQGEwJVUzEP
MA0GA1UECgwGR29vZ2xlMRMwEQYDVQQLDApFbnRlcnByaXNlMRswGQYDVQQDDBJF
bnRlcnByaXNlIFJvb3QgQ0EwHhcNMjEwNDE4MTUzMjM4WhcNMzEwNDE4MTUzMjM4
WjBXMQswCQYDVQQGEwJVUzEPMA0GA1UECgwGR29vZ2xlMRMwEQYDVQQLDApFbnRl
cnByaXNlMSIwIAYDVQQDDBlFbnRlcnByaXNlIFN1Ym9yZGluYXRlIENBMIIBIjAN
BgkqhkiG9w0BAQEFAAOCAQ8AMIIBCgKCAQEAsH1ykLEaNXOqdIT8Qc9VSqfCmrxW
IyqTHOz5ooGZfEcNoml1e9W9/v2CVizGzbUfFw1lBslqWhOR/RW8WikwaeQ8ZgAN
hWaIzBdFXHGoeVaRRgGCSrX4XDJTx+MDjXDR6j1YKBgT+xxKRXc7DedDjOeCPT6c
b2YMca5GRom1zBISNen6JB2J2Kv9hXiwcxBSTSXL7OzsLDK+xjQB6Abbgiaat4gQ
cs5MPSkjm/J0okgw2A/ZVjTQfoZEGOm87byiKNweTziXz+XQcg+NYy7I8ctUK4wc
mV90+Nerr8v0pr1Pn73kYKpNIJEEKWGVpDMwISlYpsu3aAznQwnp9ub4EwIDAQAB
o4HqMIHnMA4GA1UdDwEB/wQEAwIBBjASBgNVHRMBAf8ECDAGAQH/AgEAMB0GA1Ud
DgQWBBQecS+ED/7VtdMIn+spfog+UrIi0jAfBgNVHSMEGDAWgBSsAYmHTN+rAD5T
WTs2XJ7yTSWrLDBFBggrBgEFBQcBAQQ5MDcwNQYIKwYBBQUHMAKGKWh0dHA6Ly9w
a2kuZXNvZGVtb2FwcDIuY29tL2NhL3Jvb3QtY2EuY2VyMDoGA1UdHwQzMDEwL6At
oCuGKWh0dHA6Ly9wa2kuZXNvZGVtb2FwcDIuY29tL2NhL3Jvb3QtY2EuY3JsMA0G
CSqGSIb3DQEBBQUAA4IBAQCAOCRqpwu8OrwWs8eaB4oeKRb6Wy6AlIR7GmDdKd4Y
nM6wIYjsEvBjWBXXXGGv1+/xLPlEpPbQc27r/EltiPYuWTbKnMpE4iZy2uJgxcCp
aw/7GiJkcJ8yyQPeHib0WrSBDqDXtjXWYpIQ4AI7ZrCxMxgwyJ6iG9g8oqriFLaK
W27UEjkxvHdpoU0aRdGDRQD1npGqxkaHQ2CF9nYu8AdcVf0wCCKTUTnGz78Ouf19
1mInvU60UzQYEFYhLQ5c/Q0poLAwYOlsM+HX3J0dvbwUH9sNFDhWJllCkhOckpws
fW7YdsjQpD2DAyepJxSWnG4JyRnsYSUnSErHh7ppFTX0
-----END CERTIFICATE-----
Certificate:
    Data:
        Version: 3 (0x2)
        Serial Number: 1 (0x1)
        Signature Algorithm: sha1WithRSAEncryption
        Issuer: C=US, O=Google, OU=Enterprise, CN=Enterprise Root CA
        Validity
            Not Before: Apr 18 15:32:10 2021 GMT
            Not After : Apr 18 15:32:10 2031 GMT
        Subject: C=US, O=Google, OU=Enterprise, CN=Enterprise Root CA
        Subject Public Key Info:
            Public Key Algorithm: rsaEncryption
                RSA Public-Key: (2048 bit)
                Modulus:
                    00:d1:45:94:3e:c8:eb:c6:12:72:1e:b7:27:67:b3:
                    d4:e2:ce:78:cb:28:33:51:2d:5b:5a:21:e2:3b:20:
                    ee:61:7f:ac:e5:69:c5:86:25:08:4e:7d:d3:25:fc:
                    21:3d:8b:4c:32:bf:d0:5d:70:e4:3e:d0:ad:65:96:
                    f7:f3:16:54:4d:19:98:8f:bf:24:8b:eb:4b:96:8f:
                    a2:0e:52:b4:4e:5d:a3:8f:80:8d:a1:62:31:fc:9f:
                    d0:4c:f6:ff:65:24:05:48:c6:e5:23:84:4c:b5:ce:
                    49:8e:87:0e:8d:af:6e:c8:42:c3:e4:c5:c1:4e:7f:
                    ef:1c:8a:5c:9d:ed:64:6d:49:85:98:87:62:b1:f3:
                    c7:16:63:48:96:32:42:3b:34:0f:84:b2:4d:a7:48:
                    ea:67:e6:12:71:ec:3b:78:53:5b:1f:0a:7f:b2:b9:
                    24:59:7e:e0:25:e7:c5:0a:be:02:cd:f9:31:a4:b4:
                    53:63:87:50:f2:79:e7:fe:a4:0d:dc:39:b6:6e:fa:
                    6e:15:2f:4b:dd:ca:99:5c:d2:59:43:41:e2:1f:d1:
                    ec:bf:25:5b:02:fb:69:87:20:0c:fe:df:69:c2:17:
                    21:17:62:ff:fe:30:b7:95:2e:de:21:6a:b0:b3:57:
                    01:df:c3:f6:f4:11:c9:b0:7d:0d:5a:93:06:35:16:
                    17:cb
                Exponent: 65537 (0x10001)
        X509v3 extensions:
            X509v3 Key Usage: critical
                Certificate Sign, CRL Sign
            X509v3 Basic Constraints: critical
                CA:TRUE
            X509v3 Subject Key Identifier: 
                AC:01:89:87:4C:DF:AB:00:3E:53:59:3B:36:5C:9E:F2:4D:25:AB:2C
            X509v3 Authority Key Identifier: 
                keyid:AC:01:89:87:4C:DF:AB:00:3E:53:59:3B:36:5C:9E:F2:4D:25:AB:2C

    Signature Algorithm: sha1WithRSAEncryption
         6c:02:9e:2c:6d:60:04:88:ce:9b:a1:6f:1b:bf:3c:10:e5:3f:
         c6:65:49:6c:40:ab:2b:24:52:a1:da:53:1f:3c:f8:bf:45:89:
         f7:36:f4:ff:8e:27:ae:b6:ce:ed:a6:be:ef:94:7b:52:46:02:
         e3:15:6c:fc:b0:33:25:b2:d5:81:29:2a:c4:ce:d0:5d:53:7f:
         f1:df:70:e4:a0:a6:69:a4:09:ac:d4:9c:43:c4:a9:35:e1:99:
         0c:2a:4d:97:e8:60:a5:84:9c:ba:39:18:45:ad:c8:e7:d8:22:
         fe:44:4c:49:14:6d:5b:fd:61:6f:a0:6d:b9:f1:e3:b9:01:a1:
         f3:0d:97:49:12:63:dc:94:3b:4f:72:e1:e7:24:d9:5f:75:51:
         ca:55:42:54:54:38:8a:0e:92:56:c8:68:38:3c:f1:6b:d4:be:
         fd:1a:97:74:d1:06:af:5c:a7:36:f5:9f:b4:95:5d:b4:48:3f:
         8a:a7:fc:ab:de:d3:c2:4f:ba:a4:86:4a:dc:36:4c:c5:f9:c2:
         af:28:91:73:9e:83:21:d6:ac:d0:19:9b:4e:e0:18:f7:d8:b0:
         99:bc:77:89:28:44:90:ad:ce:06:f6:2b:83:60:79:91:8e:48:
         2f:ac:7b:39:3e:01:a2:0a:db:6b:1d:01:20:51:fb:86:a5:a9:
         98:2b:e5:27
-----BEGIN CERTIFICATE-----
MIIDfjCCAmagAwIBAgIBATANBgkqhkiG9w0BAQUFADBQMQswCQYDVQQGEwJVUzEP
MA0GA1UECgwGR29vZ2xlMRMwEQYDVQQLDApFbnRlcnByaXNlMRswGQYDVQQDDBJF
bnRlcnByaXNlIFJvb3QgQ0EwHhcNMjEwNDE4MTUzMjEwWhcNMzEwNDE4MTUzMjEw
WjBQMQswCQYDVQQGEwJVUzEPMA0GA1UECgwGR29vZ2xlMRMwEQYDVQQLDApFbnRl
cnByaXNlMRswGQYDVQQDDBJFbnRlcnByaXNlIFJvb3QgQ0EwggEiMA0GCSqGSIb3
DQEBAQUAA4IBDwAwggEKAoIBAQDRRZQ+yOvGEnIetydns9TiznjLKDNRLVtaIeI7
IO5hf6zlacWGJQhOfdMl/CE9i0wyv9BdcOQ+0K1llvfzFlRNGZiPvySL60uWj6IO
UrROXaOPgI2hYjH8n9BM9v9lJAVIxuUjhEy1zkmOhw6Nr27IQsPkxcFOf+8cilyd
7WRtSYWYh2Kx88cWY0iWMkI7NA+Esk2nSOpn5hJx7Dt4U1sfCn+yuSRZfuAl58UK
vgLN+TGktFNjh1Dyeef+pA3cObZu+m4VL0vdyplc0llDQeIf0ey/JVsC+2mHIAz+
32nCFyEXYv/+MLeVLt4harCzVwHfw/b0EcmwfQ1akwY1FhfLAgMBAAGjYzBhMA4G
A1UdDwEB/wQEAwIBBjAPBgNVHRMBAf8EBTADAQH/MB0GA1UdDgQWBBSsAYmHTN+r
AD5TWTs2XJ7yTSWrLDAfBgNVHSMEGDAWgBSsAYmHTN+rAD5TWTs2XJ7yTSWrLDAN
BgkqhkiG9w0BAQUFAAOCAQEAbAKeLG1gBIjOm6FvG788EOU/xmVJbECrKyRSodpT
Hzz4v0WJ9zb0/44nrrbO7aa+75R7UkYC4xVs/LAzJbLVgSkqxM7QXVN/8d9w5KCm
aaQJrNScQ8SpNeGZDCpNl+hgpYScujkYRa3I59gi/kRMSRRtW/1hb6BtufHjuQGh
8w2XSRJj3JQ7T3Lh5yTZX3VRylVCVFQ4ig6SVshoODzxa9S+/RqXdNEGr1ynNvWf
tJVdtEg/iqf8q97Twk+6pIZK3DZMxfnCryiRc56DIdas0BmbTuAY99iwmbx3iShE
kK3OBvYrg2B5kY5IL6x7OT4Bogrbax0BIFH7hqWpmCvlJw==
-----END CERTIFICATE-----
