Certificate:
    Data:
        Version: 3 (0x2)
        Serial Number: 1 (0x1)
        Signature Algorithm: sha256WithRSAEncryption
        Issuer: C=US, O=Google, OU=Enterprise, CN=Enterprise Root CA
        Validity
            Not Before: Sep 14 17:34:50 2023 GMT
            Not After : Sep 13 17:34:50 2033 GMT
        Subject: C=US, O=Google, OU=Enterprise, CN=Enterprise Root CA
        Subject Public Key Info:
            Public Key Algorithm: rsaEncryption
                Public-Key: (2048 bit)
                Modulus:
                    00:ca:c3:6e:8f:ad:d2:19:96:6d:a7:28:81:de:77:
                    77:2e:bc:1d:39:8a:9c:3b:0f:83:df:d9:dc:9d:c0:
                    a8:e0:31:1c:50:58:02:3c:f3:d6:a3:a5:e6:72:f4:
                    66:92:8b:95:45:55:12:3a:79:62:14:d7:11:cd:a3:
                    7d:97:fe:ff:80:88:83:75:64:e7:34:6c:4a:b3:69:
                    ca:85:cc:24:ee:39:af:66:72:19:2e:1a:8c:d5:f5:
                    0e:ba:d7:2c:35:f2:26:ea:06:20:a9:ee:34:40:08:
                    50:65:17:63:2f:6b:a8:58:ba:fc:a0:ea:e3:2e:38:
                    f0:ed:f2:c5:f4:6b:f6:0a:57:2f:42:89:3f:90:e6:
                    cf:72:25:a6:3d:a8:b7:4f:d3:11:8d:08:4d:3c:bd:
                    8e:30:52:c7:21:f5:e3:c1:30:a3:8f:0e:1e:a7:b3:
                    cf:19:a1:70:70:ce:79:21:47:da:f7:a0:20:09:f0:
                    7b:b1:f0:e8:a0:3d:48:7a:e4:d3:86:b5:30:1f:5f:
                    f0:e6:8f:b5:0f:b0:85:ea:44:95:cd:53:0a:20:24:
                    b7:72:8f:cc:a5:57:db:df:02:d5:10:6e:60:89:51:
                    06:0f:af:71:86:dc:f6:6d:d1:ad:58:5a:cc:78:fd:
                    5d:a1:93:b2:21:e3:56:14:a0:ee:f6:98:7b:02:79:
                    8e:6f
                Exponent: 65537 (0x10001)
        X509v3 extensions:
            X509v3 Key Usage: critical
                Certificate Sign, CRL Sign
            X509v3 Basic Constraints: critical
                CA:TRUE
            X509v3 Subject Key Identifier: 
                15:15:83:80:BA:A7:01:3A:93:02:B3:0D:15:36:D2:50:17:94:EE:F2
            X509v3 Authority Key Identifier: 
                15:15:83:80:BA:A7:01:3A:93:02:B3:0D:15:36:D2:50:17:94:EE:F2
            X509v3 Extended Key Usage: 
                TLS Web Server Authentication, TLS Web Client Authentication
    Signature Algorithm: sha256WithRSAEncryption
    Signature Value:
        13:2c:10:08:44:c6:1d:46:1c:01:a7:a6:bd:2e:fa:b6:59:5e:
        41:9d:d5:08:6d:35:c8:23:3e:4f:34:3e:b2:81:7e:b5:1f:2f:
        a4:a6:4f:ee:4b:12:0a:f7:ca:41:57:0a:b9:62:f3:71:77:53:
        d9:25:1d:eb:42:2c:4a:bd:e8:74:5a:09:31:b9:7b:52:6f:e0:
        46:aa:06:65:b1:69:e8:ba:97:72:a6:bc:1e:b8:82:53:4c:77:
        80:4f:dc:e2:6a:e4:dc:1c:2e:97:1f:99:fa:7e:d6:cf:ff:19:
        4e:31:5a:53:e6:94:b9:36:ac:93:1d:be:71:3f:26:65:5d:5c:
        e4:36:8a:32:03:c9:4c:c3:bf:85:99:b9:c5:fc:0a:2b:ea:a0:
        30:d5:e2:b9:c6:de:33:37:5e:55:74:08:c6:b9:c3:7a:d0:24:
        d9:d8:21:a6:3b:78:6e:d0:53:81:c9:34:dc:ab:02:95:47:37:
        0a:1a:6a:78:10:c6:de:3c:fc:f7:ff:b5:3d:ef:77:78:18:4d:
        9f:d8:3d:8c:64:3e:fb:5a:34:8b:a9:f1:f4:ea:0c:a7:27:c0:
        3e:b4:05:c1:e9:c8:2d:89:d6:c3:4a:40:00:b7:ea:51:9a:58:
        fa:b1:f4:ff:d0:6d:e9:d9:60:58:1f:7a:d2:a7:e4:11:3e:c2:
        a9:27:d7:f2
-----BEGIN CERTIFICATE-----
MIIDnzCCAoegAwIBAgIBATANBgkqhkiG9w0BAQsFADBQMQswCQYDVQQGEwJVUzEP
MA0GA1UECgwGR29vZ2xlMRMwEQYDVQQLDApFbnRlcnByaXNlMRswGQYDVQQDDBJF
bnRlcnByaXNlIFJvb3QgQ0EwHhcNMjMwOTE0MTczNDUwWhcNMzMwOTEzMTczNDUw
WjBQMQswCQYDVQQGEwJVUzEPMA0GA1UECgwGR29vZ2xlMRMwEQYDVQQLDApFbnRl
cnByaXNlMRswGQYDVQQDDBJFbnRlcnByaXNlIFJvb3QgQ0EwggEiMA0GCSqGSIb3
DQEBAQUAA4IBDwAwggEKAoIBAQDKw26PrdIZlm2nKIHed3cuvB05ipw7D4Pf2dyd
wKjgMRxQWAI889ajpeZy9GaSi5VFVRI6eWIU1xHNo32X/v+AiIN1ZOc0bEqzacqF
zCTuOa9mchkuGozV9Q661yw18ibqBiCp7jRACFBlF2Mva6hYuvyg6uMuOPDt8sX0
a/YKVy9CiT+Q5s9yJaY9qLdP0xGNCE08vY4wUsch9ePBMKOPDh6ns88ZoXBwznkh
R9r3oCAJ8Hux8OigPUh65NOGtTAfX/Dmj7UPsIXqRJXNUwogJLdyj8ylV9vfAtUQ
bmCJUQYPr3GG3PZt0a1YWsx4/V2hk7Ih41YUoO72mHsCeY5vAgMBAAGjgYMwgYAw
DgYDVR0PAQH/BAQDAgEGMA8GA1UdEwEB/wQFMAMBAf8wHQYDVR0OBBYEFBUVg4C6
pwE6kwKzDRU20lAXlO7yMB8GA1UdIwQYMBaAFBUVg4C6pwE6kwKzDRU20lAXlO7y
MB0GA1UdJQQWMBQGCCsGAQUFBwMBBggrBgEFBQcDAjANBgkqhkiG9w0BAQsFAAOC
AQEAEywQCETGHUYcAaemvS76tlleQZ3VCG01yCM+TzQ+soF+tR8vpKZP7ksSCvfK
QVcKuWLzcXdT2SUd60IsSr3odFoJMbl7Um/gRqoGZbFp6LqXcqa8HriCU0x3gE/c
4mrk3Bwulx+Z+n7Wz/8ZTjFaU+aUuTaskx2+cT8mZV1c5DaKMgPJTMO/hZm5xfwK
K+qgMNXiucbeMzdeVXQIxrnDetAk2dghpjt4btBTgck03KsClUc3ChpqeBDG3jz8
9/+1Pe93eBhNn9g9jGQ++1o0i6nx9OoMpyfAPrQFwenILYnWw0pAALfqUZpY+rH0
/9Bt6dlgWB960qfkET7CqSfX8g==
-----END CERTIFICATE-----
