Certificate:
    Data:
        Version: 3 (0x2)
        Serial Number: 2 (0x2)
        Signature Algorithm: sha256WithRSAEncryption
        Issuer: C=US, O=Google, OU=Enterprise, CN=Enterprise Root CA
        Validity
            Not Before: Sep 14 17:42:01 2023 GMT
            Not After : Sep 13 17:42:01 2033 GMT
        Subject: C=US, ST=California, L=Mountain View, O=Google, OU=Enterprise, CN=pkcs.domain.com
        Subject Public Key Info:
            Public Key Algorithm: rsaEncryption
                Public-Key: (2048 bit)
                Modulus:
                    00:c4:29:60:fd:a5:e4:b5:d6:00:05:83:3a:c9:c5:
                    66:5b:b1:6f:78:1d:07:10:c6:f6:45:ae:55:89:b2:
                    d5:0e:23:58:e8:a0:60:86:f0:ba:82:7f:87:49:08:
                    91:34:f1:38:6b:60:d9:79:7a:24:a6:4e:39:05:9a:
                    b6:cd:67:bc:94:dd:a5:9a:1e:98:39:c6:68:eb:6c:
                    46:ee:03:f3:e8:6e:f9:45:24:db:28:c8:01:39:1e:
                    67:7b:ab:b8:c8:54:9d:fc:5d:b8:01:57:c5:e8:9f:
                    89:8a:34:38:bf:5e:e0:a0:80:d6:20:6c:67:62:04:
                    64:28:1a:42:1a:99:80:90:33:24:cc:09:93:10:99:
                    50:b3:76:50:17:d0:f2:ab:24:01:84:9f:5a:11:d4:
                    50:a8:6e:ec:94:95:ba:e1:4a:96:e4:66:1b:f2:e4:
                    30:07:1c:62:67:70:22:26:dc:f8:c3:ac:6b:46:c4:
                    55:43:b1:ea:50:b9:55:74:a0:3e:39:be:05:c3:f9:
                    09:54:21:cc:ba:19:96:0c:08:5a:93:fe:d7:86:f3:
                    a7:05:eb:e2:10:8c:15:7c:04:c1:99:f5:70:f3:2e:
                    01:20:47:1a:3a:ca:d7:25:b5:34:dd:d3:a0:69:92:
                    7c:ab:ed:1a:bf:cc:ee:9a:da:48:95:99:08:05:e4:
                    22:2f
                Exponent: 65537 (0x10001)
        X509v3 extensions:
            X509v3 Key Usage: critical
                Digital Signature
            X509v3 Basic Constraints: 
                CA:FALSE
            X509v3 Extended Key Usage: 
                TLS Web Server Authentication
            X509v3 Subject Key Identifier: 
                46:82:C7:A3:23:CB:D8:B2:CB:C7:69:F3:04:F5:67:39:62:00:DE:9C
            X509v3 Authority Key Identifier: 
                15:15:83:80:BA:A7:01:3A:93:02:B3:0D:15:36:D2:50:17:94:EE:F2
            Authority Information Access: 
                CA Issuers - URI:http://pki.esodemoapp2.com/ca/root-ca.cer
            X509v3 CRL Distribution Points: 
                Full Name:
                  URI:http://pki.esodemoapp2.com/ca/root-ca.crl
            X509v3 Subject Alternative Name: 
                DNS:pkcs.domain.com
    Signature Algorithm: sha256WithRSAEncryption
    Signature Value:
        7c:0d:69:3f:02:73:55:42:19:67:a1:dc:b0:ef:25:26:2a:23:
        52:5a:d8:fc:c8:2c:c8:4e:37:ab:65:cd:da:e4:b1:f8:bc:bd:
        7d:cf:d3:8f:c6:ec:12:15:52:07:e5:16:db:a8:fe:65:33:f3:
        04:18:7f:02:99:75:3c:9a:d6:d4:32:3c:53:3a:76:01:22:da:
        c8:4e:5e:88:ea:8f:d1:3e:3f:ea:12:94:9d:2e:11:a2:38:b9:
        ac:51:fe:b1:b4:91:a5:f6:97:c3:22:b7:9c:7d:95:f6:b4:ba:
        52:b6:86:c7:e9:e2:22:61:5e:ce:79:29:2c:46:2f:0b:20:49:
        2c:54:b8:8e:9c:0f:63:2e:60:f5:7a:24:92:c5:e1:15:02:57:
        0c:b6:0b:15:5d:5b:75:e2:ac:ce:ea:2f:43:e8:a8:d5:68:66:
        69:12:1d:80:a7:74:f6:45:26:b2:5e:60:c9:39:29:a6:00:c6:
        fd:08:99:fd:a4:f2:3f:56:28:09:f0:21:f4:7e:e7:13:99:b0:
        ae:db:8b:61:62:51:06:1c:20:74:e4:3c:02:c7:fb:f0:db:a6:
        ea:c0:8a:f0:f6:dd:72:7a:a9:8c:13:7d:b6:69:b3:90:2a:20:
        53:b2:48:c2:77:ea:45:31:88:5b:87:11:99:06:bc:bf:65:00:
        97:2e:4c:0a
-----BEGIN CERTIFICATE-----
MIIEWjCCA0KgAwIBAgIBAjANBgkqhkiG9w0BAQsFADBQMQswCQYDVQQGEwJVUzEP
MA0GA1UECgwGR29vZ2xlMRMwEQYDVQQLDApFbnRlcnByaXNlMRswGQYDVQQDDBJF
bnRlcnByaXNlIFJvb3QgQ0EwHhcNMjMwOTE0MTc0MjAxWhcNMzMwOTEzMTc0MjAx
WjB6MQswCQYDVQQGEwJVUzETMBEGA1UECBMKQ2FsaWZvcm5pYTEWMBQGA1UEBxMN
TW91bnRhaW4gVmlldzEPMA0GA1UEChMGR29vZ2xlMRMwEQYDVQQLEwpFbnRlcnBy
aXNlMRgwFgYDVQQDEw9wa2NzLmRvbWFpbi5jb20wggEiMA0GCSqGSIb3DQEBAQUA
A4IBDwAwggEKAoIBAQDEKWD9peS11gAFgzrJxWZbsW94HQcQxvZFrlWJstUOI1jo
oGCG8LqCf4dJCJE08ThrYNl5eiSmTjkFmrbNZ7yU3aWaHpg5xmjrbEbuA/PobvlF
JNsoyAE5Hmd7q7jIVJ38XbgBV8Xon4mKNDi/XuCggNYgbGdiBGQoGkIamYCQMyTM
CZMQmVCzdlAX0PKrJAGEn1oR1FCobuyUlbrhSpbkZhvy5DAHHGJncCIm3PjDrGtG
xFVDsepQuVV0oD45vgXD+QlUIcy6GZYMCFqT/teG86cF6+IQjBV8BMGZ9XDzLgEg
Rxo6ytcltTTd06Bpknyr7Rq/zO6a2kiVmQgF5CIvAgMBAAGjggETMIIBDzAOBgNV
HQ8BAf8EBAMCB4AwCQYDVR0TBAIwADATBgNVHSUEDDAKBggrBgEFBQcDATAdBgNV
HQ4EFgQURoLHoyPL2LLLx2nzBPVnOWIA3pwwHwYDVR0jBBgwFoAUFRWDgLqnATqT
ArMNFTbSUBeU7vIwRQYIKwYBBQUHAQEEOTA3MDUGCCsGAQUFBzAChilodHRwOi8v
cGtpLmVzb2RlbW9hcHAyLmNvbS9jYS9yb290LWNhLmNlcjA6BgNVHR8EMzAxMC+g
LaArhilodHRwOi8vcGtpLmVzb2RlbW9hcHAyLmNvbS9jYS9yb290LWNhLmNybDAa
BgNVHREEEzARgg9wa2NzLmRvbWFpbi5jb20wDQYJKoZIhvcNAQELBQADggEBAHwN
aT8Cc1VCGWeh3LDvJSYqI1Ja2PzILMhON6tlzdrksfi8vX3P04/G7BIVUgflFtuo
/mUz8wQYfwKZdTya1tQyPFM6dgEi2shOXojqj9E+P+oSlJ0uEaI4uaxR/rG0kaX2
l8Mit5x9lfa0ulK2hsfp4iJhXs55KSxGLwsgSSxUuI6cD2MuYPV6JJLF4RUCVwy2
CxVdW3XirM7qL0PoqNVoZmkSHYCndPZFJrJeYMk5KaYAxv0Imf2k8j9WKAnwIfR+
5xOZsK7bi2FiUQYcIHTkPALH+/DbpurAivD23XJ6qYwTfbZps5AqIFOySMJ36kUx
iFuHEZkGvL9lAJcuTAo=
-----END CERTIFICATE-----
