Certificate:
    Data:
        Version: 3 (0x2)
        Serial Number: 3 (0x3)
        Signature Algorithm: sha256WithRSAEncryption
        Issuer: C=US, O=Google, OU=Enterprise, CN=Enterprise Root CA
        Validity
            Not Before: Sep 14 17:42:15 2023 GMT
            Not After : Sep 13 17:42:15 2033 GMT
        Subject: C=US, ST=California, L=Mountain View, O=Google, OU=Enterprise, CN=pkcs.domain.com
        Subject Public Key Info:
            Public Key Algorithm: rsaEncryption
                Public-Key: (2048 bit)
                Modulus:
                    00:c4:29:60:fd:a5:e4:b5:d6:00:05:83:3a:c9:c5:
                    66:5b:b1:6f:78:1d:07:10:c6:f6:45:ae:55:89:b2:
                    d5:0e:23:58:e8:a0:60:86:f0:ba:82:7f:87:49:08:
                    91:34:f1:38:6b:60:d9:79:7a:24:a6:4e:39:05:9a:
                    b6:cd:67:bc:94:dd:a5:9a:1e:98:39:c6:68:eb:6c:
                    46:ee:03:f3:e8:6e:f9:45:24:db:28:c8:01:39:1e:
                    67:7b:ab:b8:c8:54:9d:fc:5d:b8:01:57:c5:e8:9f:
                    89:8a:34:38:bf:5e:e0:a0:80:d6:20:6c:67:62:04:
                    64:28:1a:42:1a:99:80:90:33:24:cc:09:93:10:99:
                    50:b3:76:50:17:d0:f2:ab:24:01:84:9f:5a:11:d4:
                    50:a8:6e:ec:94:95:ba:e1:4a:96:e4:66:1b:f2:e4:
                    30:07:1c:62:67:70:22:26:dc:f8:c3:ac:6b:46:c4:
                    55:43:b1:ea:50:b9:55:74:a0:3e:39:be:05:c3:f9:
                    09:54:21:cc:ba:19:96:0c:08:5a:93:fe:d7:86:f3:
                    a7:05:eb:e2:10:8c:15:7c:04:c1:99:f5:70:f3:2e:
                    01:20:47:1a:3a:ca:d7:25:b5:34:dd:d3:a0:69:92:
                    7c:ab:ed:1a:bf:cc:ee:9a:da:48:95:99:08:05:e4:
                    22:2f
                Exponent: 65537 (0x10001)
        X509v3 extensions:
            X509v3 Key Usage: critical
                Digital Signature
            X509v3 Basic Constraints: 
                CA:FALSE
            X509v3 Extended Key Usage: 
                TLS Web Client Authentication
            X509v3 Subject Key Identifier: 
                46:82:C7:A3:23:CB:D8:B2:CB:C7:69:F3:04:F5:67:39:62:00:DE:9C
            X509v3 Authority Key Identifier: 
                15:15:83:80:BA:A7:01:3A:93:02:B3:0D:15:36:D2:50:17:94:EE:F2
            Authority Information Access: 
                CA Issuers - URI:http://pki.esodemoapp2.com/ca/root-ca.cer
            X509v3 CRL Distribution Points: 
                Full Name:
                  URI:http://pki.esodemoapp2.com/ca/root-ca.crl
            X509v3 Subject Alternative Name: 
                DNS:pkcs.domain.com
    Signature Algorithm: sha256WithRSAEncryption
    Signature Value:
        b0:a8:fd:36:fe:20:63:0f:aa:e3:be:03:87:b8:7c:c4:4c:eb:
        55:9b:92:a4:cf:ff:97:c8:41:6d:e0:93:ba:f8:62:6f:33:fd:
        6c:e9:4b:b5:f9:62:e2:71:fb:c6:dd:72:0b:8c:aa:f8:de:44:
        73:f1:40:ef:d8:b0:e7:41:07:80:1d:4b:b9:03:01:1b:c4:60:
        e2:b8:43:dd:96:a5:62:bd:6a:4e:e5:15:39:25:f1:85:e5:ea:
        01:60:6b:0b:06:60:65:fc:eb:70:2f:34:41:53:ff:af:2b:4c:
        f8:b1:59:09:67:a6:3b:17:3f:4e:03:ab:3c:01:96:04:1a:a4:
        04:af:eb:eb:68:ea:a8:e3:3f:eb:02:74:db:11:6b:ef:b2:ba:
        e8:7e:3c:0f:43:4a:a1:d0:ba:68:f0:d3:2e:a5:c6:61:2f:46:
        93:91:75:23:ec:e0:ba:52:0b:62:d8:53:cb:20:c5:5f:1e:be:
        7d:54:63:f4:ee:a3:ac:1f:c2:ca:82:3e:8f:6a:6f:53:d3:80:
        40:05:e2:f4:f1:d7:05:bb:9e:72:ca:bb:3a:a0:64:0b:c5:6a:
        dd:23:3b:6a:03:6c:62:fc:53:02:6c:25:3d:cc:18:46:2c:70:
        07:eb:98:2c:08:c8:3c:45:96:ab:3a:d8:6f:f3:11:99:78:ee:
        fa:69:ea:17
-----BEGIN CERTIFICATE-----
MIIEWjCCA0KgAwIBAgIBAzANBgkqhkiG9w0BAQsFADBQMQswCQYDVQQGEwJVUzEP
MA0GA1UECgwGR29vZ2xlMRMwEQYDVQQLDApFbnRlcnByaXNlMRswGQYDVQQDDBJF
bnRlcnByaXNlIFJvb3QgQ0EwHhcNMjMwOTE0MTc0MjE1WhcNMzMwOTEzMTc0MjE1
WjB6MQswCQYDVQQGEwJVUzETMBEGA1UECBMKQ2FsaWZvcm5pYTEWMBQGA1UEBxMN
TW91bnRhaW4gVmlldzEPMA0GA1UEChMGR29vZ2xlMRMwEQYDVQQLEwpFbnRlcnBy
aXNlMRgwFgYDVQQDEw9wa2NzLmRvbWFpbi5jb20wggEiMA0GCSqGSIb3DQEBAQUA
A4IBDwAwggEKAoIBAQDEKWD9peS11gAFgzrJxWZbsW94HQcQxvZFrlWJstUOI1jo
oGCG8LqCf4dJCJE08ThrYNl5eiSmTjkFmrbNZ7yU3aWaHpg5xmjrbEbuA/PobvlF
JNsoyAE5Hmd7q7jIVJ38XbgBV8Xon4mKNDi/XuCggNYgbGdiBGQoGkIamYCQMyTM
CZMQmVCzdlAX0PKrJAGEn1oR1FCobuyUlbrhSpbkZhvy5DAHHGJncCIm3PjDrGtG
xFVDsepQuVV0oD45vgXD+QlUIcy6GZYMCFqT/teG86cF6+IQjBV8BMGZ9XDzLgEg
Rxo6ytcltTTd06Bpknyr7Rq/zO6a2kiVmQgF5CIvAgMBAAGjggETMIIBDzAOBgNV
HQ8BAf8EBAMCB4AwCQYDVR0TBAIwADATBgNVHSUEDDAKBggrBgEFBQcDAjAdBgNV
HQ4EFgQURoLHoyPL2LLLx2nzBPVnOWIA3pwwHwYDVR0jBBgwFoAUFRWDgLqnATqT
ArMNFTbSUBeU7vIwRQYIKwYBBQUHAQEEOTA3MDUGCCsGAQUFBzAChilodHRwOi8v
cGtpLmVzb2RlbW9hcHAyLmNvbS9jYS9yb290LWNhLmNlcjA6BgNVHR8EMzAxMC+g
LaArhilodHRwOi8vcGtpLmVzb2RlbW9hcHAyLmNvbS9jYS9yb290LWNhLmNybDAa
BgNVHREEEzARgg9wa2NzLmRvbWFpbi5jb20wDQYJKoZIhvcNAQELBQADggEBALCo
/Tb+IGMPquO+A4e4fMRM61WbkqTP/5fIQW3gk7r4Ym8z/WzpS7X5YuJx+8bdcguM
qvjeRHPxQO/YsOdBB4AdS7kDARvEYOK4Q92WpWK9ak7lFTkl8YXl6gFgawsGYGX8
63AvNEFT/68rTPixWQlnpjsXP04DqzwBlgQapASv6+to6qjjP+sCdNsRa++yuuh+
PA9DSqHQumjw0y6lxmEvRpORdSPs4LpSC2LYU8sgxV8evn1UY/Tuo6wfwsqCPo9q
b1PTgEAF4vTx1wW7nnLKuzqgZAvFat0jO2oDbGL8UwJsJT3MGEYscAfrmCwIyDxF
lqs62G/zEZl47vpp6hc=
-----END CERTIFICATE-----
